; Function Attrs: nounwind uwtable
define internal fastcc i32 @ftp_state_stor_resp(ptr noundef %0, i32 noundef range(i32 1, 0) %1, i8 noundef zeroext %2) unnamed_addr #0 {
  %4 = alloca i8, align 1
  %5 = icmp sgt i32 %1, 399
  br i1 %5, label %6, label %31

6:                                                ; preds = %3
  tail call void (ptr, ptr, ...) @Curl_failf(ptr noundef %0, ptr noundef nonnull @.str.148, i32 noundef %1) #10
  %7 = getelementptr inbounds nuw i8, ptr %0, i64 24
  %8 = load ptr, ptr %7, align 8, !tbaa !107
  %9 = getelementptr inbounds nuw i8, ptr %8, i64 1326
  %10 = load i8, ptr %9, align 2, !tbaa !138
  %11 = icmp ne i8 %10, 0
  %12 = icmp ne ptr %0, null
  %or.cond4.i = and i1 %12, %11
  br i1 %or.cond4.i, label %13, label %_ftp_state.exit

13:                                               ; preds = %6
  %14 = getelementptr inbounds nuw i8, ptr %0, i64 2562
  %15 = load i64, ptr %14, align 2
  %16 = and i64 %15, 134217728
  %.not.i = icmp eq i64 %16, 0
  br i1 %.not.i, label %_ftp_state.exit, label %17

17:                                               ; preds = %13
  %18 = getelementptr inbounds nuw i8, ptr %0, i64 4712
  %19 = load ptr, ptr %18, align 8, !tbaa !104
  %.not20.i = icmp eq ptr %19, null
  br i1 %.not20.i, label %26, label %20

20:                                               ; preds = %17
  %21 = getelementptr inbounds nuw i8, ptr %19, i64 8
  %22 = load i32, ptr %21, align 8, !tbaa !105
  %23 = icmp sgt i32 %22, 0
  %24 = load i32, ptr getelementptr inbounds nuw (i8, ptr @Curl_trc_feat_ftp, i64 8), align 8
  %25 = icmp sgt i32 %24, 0
  %or.cond.i = select i1 %23, i1 %25, i1 false
  br i1 %or.cond.i, label %27, label %_ftp_state.exit

26:                                               ; preds = %17
  %.old.i = load i32, ptr getelementptr inbounds nuw (i8, ptr @Curl_trc_feat_ftp, i64 8), align 8, !tbaa !105
  %.old1.i = icmp sgt i32 %.old.i, 0
  br i1 %.old1.i, label %27, label %_ftp_state.exit

27:                                               ; preds = %26, %20
  %28 = zext i8 %10 to i64
  %29 = getelementptr inbounds nuw [35 x ptr], ptr @ftp_state_names, i64 0, i64 %28
  %30 = load ptr, ptr %29, align 8, !tbaa !8
  tail call void (ptr, ptr, ...) @Curl_trc_ftp(ptr noundef nonnull %0, ptr noundef nonnull @.str.7, ptr noundef %30, ptr noundef nonnull @.str.9) #10
  br label %_ftp_state.exit

_ftp_state.exit:                                  ; preds = %6, %13, %20, %26, %27
  store i8 0, ptr %9, align 2, !tbaa !138
  br label %83

31:                                               ; preds = %3
  %32 = getelementptr inbounds nuw i8, ptr %0, i64 24
  %33 = load ptr, ptr %32, align 8, !tbaa !107
  %34 = getelementptr inbounds nuw i8, ptr %33, i64 1327
  store i8 %2, ptr %34, align 1, !tbaa !21
  %35 = getelementptr inbounds nuw i8, ptr %0, i64 2562
  %36 = load i64, ptr %35, align 2
  %37 = and i64 %36, 2048
  %.not = icmp eq i64 %37, 0
  br i1 %.not, label %81, label %38

38:                                               ; preds = %31
  call void @llvm.lifetime.start.p0(i64 1, ptr nonnull %4) #10
  %39 = load ptr, ptr %32, align 8, !tbaa !107
  %40 = getelementptr inbounds nuw i8, ptr %39, i64 1326
  %41 = load i8, ptr %40, align 2, !tbaa !138
  %.not41 = icmp eq i8 %41, 0
  %42 = and i64 %36, 134217728
  %.not.i33 = icmp eq i64 %42, 0
  %or.cond = or i1 %.not.i33, %.not41
  br i1 %or.cond, label %_ftp_state.exit38, label %43

43:                                               ; preds = %38
  %44 = getelementptr inbounds nuw i8, ptr %0, i64 4712
  %45 = load ptr, ptr %44, align 8, !tbaa !104
  %.not20.i34 = icmp eq ptr %45, null
  br i1 %.not20.i34, label %52, label %46

46:                                               ; preds = %43
  %47 = getelementptr inbounds nuw i8, ptr %45, i64 8
  %48 = load i32, ptr %47, align 8, !tbaa !105
  %49 = icmp sgt i32 %48, 0
  %50 = load i32, ptr getelementptr inbounds nuw (i8, ptr @Curl_trc_feat_ftp, i64 8), align 8
  %51 = icmp sgt i32 %50, 0
  %or.cond.i35 = select i1 %49, i1 %51, i1 false
  br i1 %or.cond.i35, label %53, label %_ftp_state.exit38

52:                                               ; preds = %43
  %.old.i36 = load i32, ptr getelementptr inbounds nuw (i8, ptr @Curl_trc_feat_ftp, i64 8), align 8, !tbaa !105
  %.old1.i37 = icmp sgt i32 %.old.i36, 0
  br i1 %.old1.i37, label %53, label %_ftp_state.exit38

53:                                               ; preds = %52, %46
  %54 = zext i8 %41 to i64
  %55 = getelementptr inbounds nuw [35 x ptr], ptr @ftp_state_names, i64 0, i64 %54
  %56 = load ptr, ptr %55, align 8, !tbaa !8
  tail call void (ptr, ptr, ...) @Curl_trc_ftp(ptr noundef nonnull %0, ptr noundef nonnull @.str.7, ptr noundef %56, ptr noundef nonnull @.str.9) #10
  br label %_ftp_state.exit38

_ftp_state.exit38:                                ; preds = %38, %46, %52, %53
  store i8 0, ptr %40, align 2, !tbaa !138
  %57 = call i32 @Curl_conn_connect(ptr noundef nonnull %0, i32 noundef 1, i1 noundef zeroext false, ptr noundef nonnull %4) #10
  %.not28 = icmp eq i32 %57, 0
  br i1 %.not28, label %58, label %.thread

58:                                               ; preds = %_ftp_state.exit38
  %59 = load i8, ptr %4, align 1, !tbaa !108, !range !139, !noundef !140
  %60 = trunc nuw i8 %59 to i1
  br i1 %60, label %77, label %61

61:                                               ; preds = %58
  %62 = load i64, ptr %35, align 2
  %63 = and i64 %62, 134217728
  %.not30 = icmp eq i64 %63, 0
  br i1 %.not30, label %72, label %64

64:                                               ; preds = %61
  %65 = getelementptr inbounds nuw i8, ptr %0, i64 4712
  %66 = load ptr, ptr %65, align 8, !tbaa !104
  %.not31 = icmp eq ptr %66, null
  br i1 %.not31, label %71, label %67

67:                                               ; preds = %64
  %68 = getelementptr inbounds nuw i8, ptr %66, i64 8
  %69 = load i32, ptr %68, align 8, !tbaa !105
  %70 = icmp sgt i32 %69, 0
  br i1 %70, label %71, label %72

71:                                               ; preds = %67, %64
  call void (ptr, ptr, ...) @Curl_infof(ptr noundef nonnull %0, ptr noundef nonnull @.str.140) #10
  br label %72

72:                                               ; preds = %71, %67, %61
  %73 = getelementptr inbounds nuw i8, ptr %33, i64 1330
  %74 = load i8, ptr %73, align 2
  %75 = or i8 %74, 32
  store i8 %75, ptr %73, align 2
  %76 = call fastcc i32 @ftp_check_ctrl_on_data_wait(ptr noundef nonnull %0)
  br label %.thread

.thread:                                          ; preds = %72, %_ftp_state.exit38
  %.1.ph = phi i32 [ %57, %_ftp_state.exit38 ], [ %76, %72 ]
  call void @llvm.lifetime.end.p0(i64 1, ptr nonnull %4) #10
  br label %83

77:                                               ; preds = %58
  %78 = getelementptr inbounds nuw i8, ptr %33, i64 1330
  %79 = load i8, ptr %78, align 2
  %80 = and i8 %79, -33
  store i8 %80, ptr %78, align 2
  call void @llvm.lifetime.end.p0(i64 1, ptr nonnull %4) #10
  br label %81

81:                                               ; preds = %77, %31
  %82 = call fastcc i32 @InitiateTransfer(ptr noundef nonnull %0)
  br label %83

83:                                               ; preds = %.thread, %81, %_ftp_state.exit
  %.0 = phi i32 [ 25, %_ftp_state.exit ], [ %82, %81 ], [ %.1.ph, %.thread ]
  ret i32 %.0
}